; Function Attrs: mustprogress uwtable
define noundef i64 @_ZN32pxrInternal_v0_24__pxrReserved__10HgiTexture22_GetByteSizeOfResourceERKNS_14HgiTextureDescE(ptr noundef nonnull align 8 dereferenceable(96) %0) local_unnamed_addr #0 align 2 personality ptr @__gxx_personality_v0 {
_ZNSt6vectorIN32pxrInternal_v0_24__pxrReserved__10HgiMipInfoESaIS1_EED2Ev.exit:
  %1 = alloca %"class.std::vector", align 8
  %2 = getelementptr inbounds nuw i8, ptr %0, i64 36
  %3 = load i32, ptr %2, align 4
  %4 = getelementptr inbounds nuw i8, ptr %0, i64 60
  %5 = getelementptr inbounds nuw i8, ptr %0, i64 72
  %6 = load i16, ptr %5, align 8
  %7 = zext i16 %6 to i64
  call void @_ZN32pxrInternal_v0_24__pxrReserved__14HgiGetMipInfosENS_9HgiFormatERKNS_7GfVec3iEmm(ptr dead_on_unwind nonnull writable sret(%"class.std::vector") align 8 %1, i32 noundef %3, ptr noundef nonnull align 4 dereferenceable(12) %4, i64 noundef %7, i64 noundef -1)
  %8 = getelementptr inbounds nuw i8, ptr %1, i64 8
  %9 = load ptr, ptr %8, align 8
  %10 = load ptr, ptr %1, align 8
  %11 = ptrtoint ptr %9 to i64
  %12 = ptrtoint ptr %10 to i64
  %13 = sub i64 %11, %12
  %14 = ashr exact i64 %13, 5
  %15 = getelementptr inbounds nuw i8, ptr %0, i64 74
  %16 = load i16, ptr %15, align 2
  %17 = zext i16 %16 to i64
  %.sroa.speculated = call i64 @llvm.umin.i64(i64 %14, i64 %17)
  %18 = getelementptr %"struct.pxrInternal_v0_24__pxrReserved__::HgiMipInfo", ptr %10, i64 %.sroa.speculated
  %19 = getelementptr i8, ptr %18, i64 -32
  %20 = load i64, ptr %19, align 8
  %21 = load i16, ptr %5, align 8
  %22 = zext i16 %21 to i64
  %23 = getelementptr i8, ptr %18, i64 -8
  %24 = load i64, ptr %23, align 8
  %25 = mul i64 %24, %22
  %26 = add i64 %25, %20
  %27 = getelementptr inbounds nuw i8, ptr %1, i64 16
  %28 = load ptr, ptr %27, align 8
  %29 = ptrtoint ptr %28 to i64
  %30 = sub i64 %29, %12
  call void @_ZdlPvm(ptr noundef nonnull %10, i64 noundef %30) #17
  ret i64 %26
}